target datalayout = "e-m:e-p270:32:32-p271:32:32-p272:64:64-i64:64-i128:128-f80:128-n8:16:32:64-S128"
target triple = "x86_64-pc-linux-gnu"

%struct.GlobalContext = type { %struct.HTable, ptr, ptr, ptr, ptr, ptr, ptr, ptr, ptr, i8, i32, i32, i32, ptr, ptr, %struct.HTable, %struct.HTable, %struct.Module_, %struct.DeclTable, %struct.DeclTable, %struct.Path_, ptr, ptr, ptr, ptr, ptr, ptr, ptr, [65536 x ptr], ptr, ptr, ptr }
%struct.HTable = type { i32, ptr }
%struct.Module_ = type { ptr, ptr, ptr, i16, i32, ptr, %struct.HTable, ptr, ptr, ptr, ptr, ptr, ptr, ptr, ptr, ptr }
%struct.DeclTable = type { i32, i32, i32, ptr }
%struct.Path_ = type { %union.SourceSpan, ptr, i32 }
%union.SourceSpan = type { i64 }
%struct.BuildTarget = type { i32, ptr, ptr, ptr, ptr, ptr, ptr, ptr, ptr, ptr, ptr, ptr, ptr, ptr, ptr, ptr, ptr, ptr, ptr, i8, i8, i8, i8, i8, i8, i8, i8, i8, i8, i8, i8, i8, i8, i8, i8, i8, i8, i8, i8, i32, i32, i32, i32, i32, i32, i32, i32, i32, i32, i32, i32, i32, i32, i32, i32, i32, i32, ptr, ptr, ptr, ptr, ptr, ptr, ptr, ptr, ptr, ptr, %struct.anon.85, %struct.anon.86, %struct.anon.87, %struct.anon.88 }
%struct.anon.85 = type { i16, i32, i32, i32 }
%struct.anon.86 = type { ptr, ptr, ptr, ptr }
%struct.anon.87 = type { ptr, ptr, i32, i8 }
%struct.anon.88 = type { ptr, ptr }
%struct.PlatformTarget = type { ptr, i32, ptr, ptr, i32, i32, i32, i32, i32, i32, i32, [7 x %struct.AlignData], [7 x %struct.AlignData], [7 x %struct.AlignData], i32, i16, %union.anon.89, i8, i8, i8, i8, i8, i8, i8, i8, i8, i8, %struct.AlignData, i32, i32, i32, i32, i32, i32, i32, i32, i32, i32, i32, i32, i32, i32, i32, i32, ptr }
%union.anon.89 = type { %struct.anon.91 }
%struct.anon.91 = type { %struct.X86Features, i32, i32 }
%struct.X86Features = type { [2 x i64], ptr }
%struct.AlignData = type { i32, i32 }
%struct.Decl_ = type { ptr, ptr, %union.SourceSpan, i64, %union.anon, i32, %union.anon.0, i64, ptr, ptr, ptr, %union.anon.1 }
%union.anon = type { ptr }
%union.anon.0 = type { i16 }
%union.anon.1 = type { %struct.FuncDecl }
%struct.FuncDecl = type { i32, [4 x i8], %struct.Signature_, i32, i32, %union.anon.8 }
%struct.Signature_ = type <{ %struct.CalleeAttributes, i16, i8, i32, i32, [4 x i8], ptr }>
%struct.CalleeAttributes = type { i8 }
%union.anon.8 = type { %struct.anon.9 }
%struct.anon.9 = type { i16, %union.anon.10 }
%union.anon.10 = type { ptr }
%struct.CompilationUnit_ = type { ptr, ptr, ptr, ptr, ptr, ptr, ptr, ptr, ptr, ptr, i32, ptr, i8, i8, i8, i8, ptr, ptr, ptr, ptr, ptr, ptr, ptr, ptr, ptr, ptr, ptr, ptr, %struct.HTable, i32, ptr, ptr, %struct.anon.103 }
%struct.anon.103 = type { ptr, ptr }

@global_context = dso_local global %struct.GlobalContext zeroinitializer, align 8
@active_target = dso_local global %struct.BuildTarget zeroinitializer, align 8
@platform_target = external global %struct.PlatformTarget, align 8
@.str.119 = private unnamed_addr constant [4 x i8] c"out\00", align 1
@.str.120 = private unnamed_addr constant [5 x i8] c".exe\00", align 1
@.str.121 = private unnamed_addr constant [6 x i8] c".wasm\00", align 1

; Function Attrs: nounwind uwtable
define internal ptr @exe_name() #0 {
  %1 = alloca ptr, align 8
  %2 = alloca ptr, align 8
  %3 = alloca ptr, align 8
  %4 = alloca i64, align 8
  %5 = alloca i64, align 8
  %6 = load ptr, ptr getelementptr inbounds (%struct.BuildTarget, ptr @active_target, i32 0, i32 2), align 8
  %7 = icmp ne ptr %6, null
  br i1 %7, label %11, label %8

8:                                                ; preds = %0
  %9 = load i8, ptr getelementptr inbounds (%struct.BuildTarget, ptr @active_target, i32 0, i32 38), align 1
  %10 = trunc i8 %9 to i1
  br i1 %10, label %11, label %19

11:                                               ; preds = %8, %0
  %12 = load ptr, ptr getelementptr inbounds (%struct.BuildTarget, ptr @active_target, i32 0, i32 2), align 8
  %13 = icmp ne ptr %12, null
  br i1 %13, label %14, label %16

14:                                               ; preds = %11
  %15 = load ptr, ptr getelementptr inbounds (%struct.BuildTarget, ptr @active_target, i32 0, i32 2), align 8
  br label %17

16:                                               ; preds = %11
  br label %17

17:                                               ; preds = %16, %14
  %18 = phi ptr [ %15, %14 ], [ @.str.119, %16 ]
  store ptr %18, ptr %2, align 8
  br label %56

19:                                               ; preds = %8
  %20 = load ptr, ptr getelementptr inbounds (%struct.GlobalContext, ptr @global_context, i32 0, i32 25), align 8
  %21 = getelementptr inbounds %struct.Decl_, ptr %20, i32 0, i32 8
  %22 = load ptr, ptr %21, align 8
  %23 = getelementptr inbounds %struct.CompilationUnit_, ptr %22, i32 0, i32 0
  %24 = load ptr, ptr %23, align 8
  %25 = getelementptr inbounds %struct.Module_, ptr %24, i32 0, i32 0
  %26 = load ptr, ptr %25, align 8
  store ptr %26, ptr %3, align 8
  store i64 0, ptr %4, align 8
  %27 = load ptr, ptr %3, align 8
  %28 = getelementptr inbounds %struct.Path_, ptr %27, i32 0, i32 2
  %29 = load i32, ptr %28, align 8
  %30 = zext i32 %29 to i64
  store i64 %30, ptr %5, align 8
  br label %31

31:                                               ; preds = %47, %19
  %32 = load i64, ptr %5, align 8
  %33 = icmp ugt i64 %32, 0
  br i1 %33, label %34, label %50

34:                                               ; preds = %31
  %35 = load ptr, ptr %3, align 8
  %36 = getelementptr inbounds %struct.Path_, ptr %35, i32 0, i32 1
  %37 = load ptr, ptr %36, align 8
  %38 = load i64, ptr %5, align 8
  %39 = sub i64 %38, 1
  %40 = getelementptr inbounds i8, ptr %37, i64 %39
  %41 = load i8, ptr %40, align 1
  %42 = sext i8 %41 to i32
  %43 = icmp eq i32 %42, 58
  br i1 %43, label %44, label %46

44:                                               ; preds = %34
  %45 = load i64, ptr %5, align 8
  store i64 %45, ptr %4, align 8
  br label %50

46:                                               ; preds = %34
  br label %47

47:                                               ; preds = %46
  %48 = load i64, ptr %5, align 8
  %49 = add i64 %48, -1
  store i64 %49, ptr %5, align 8
  br label %31, !llvm.loop !16

50:                                               ; preds = %44, %31
  %51 = load ptr, ptr %3, align 8
  %52 = getelementptr inbounds %struct.Path_, ptr %51, i32 0, i32 1
  %53 = load ptr, ptr %52, align 8
  %54 = load i64, ptr %4, align 8
  %55 = getelementptr inbounds i8, ptr %53, i64 %54
  store ptr %55, ptr %2, align 8
  br label %56

56:                                               ; preds = %50, %17
  %57 = load i32, ptr getelementptr inbounds (%struct.BuildTarget, ptr @active_target, i32 0, i32 52), align 8
  switch i32 %57, label %61 [
    i32 23, label %58
    i32 24, label %58
    i32 16, label %58
  ]

58:                                               ; preds = %56, %56, %56
  %59 = load ptr, ptr %2, align 8
  %60 = call ptr @str_cat(ptr noundef %59, ptr noundef @.str.120)
  store ptr %60, ptr %1, align 8
  br label %69

61:                                               ; preds = %56
  %62 = load i32, ptr getelementptr inbounds (%struct.PlatformTarget, ptr @platform_target, i32 0, i32 4), align 8
  %63 = call zeroext i1 @arch_is_wasm(i32 noundef %62)
  br i1 %63, label %64, label %67

64:                                               ; preds = %61
  %65 = load ptr, ptr %2, align 8
  %66 = call ptr @str_cat(ptr noundef %65, ptr noundef @.str.121)
  store ptr %66, ptr %1, align 8
  br label %69

67:                                               ; preds = %61
  %68 = load ptr, ptr %2, align 8
  store ptr %68, ptr %1, align 8
  br label %69

69:                                               ; preds = %67, %64, %58
  %70 = load ptr, ptr %1, align 8
  ret ptr %70
}