; Function Attrs: nounwind uwtable
define internal fastcc ptr @exe_name() unnamed_addr #0 {
  %1 = load ptr, ptr getelementptr inbounds (%struct.BuildTarget, ptr @active_target, i64 0, i32 2), align 8
  %.not = icmp eq ptr %1, null
  br i1 %.not, label %2, label %20

2:                                                ; preds = %0
  %3 = load i8, ptr getelementptr inbounds (%struct.BuildTarget, ptr @active_target, i64 0, i32 38), align 1
  %4 = trunc i8 %3 to i1
  br i1 %4, label %20, label %5

5:                                                ; preds = %2
  %6 = load ptr, ptr getelementptr inbounds (%struct.GlobalContext, ptr @global_context, i64 0, i32 25), align 8
  %7 = getelementptr inbounds i8, ptr %6, i64 56
  %8 = load ptr, ptr %7, align 8
  %9 = load ptr, ptr %8, align 8
  %10 = load ptr, ptr %9, align 8
  %11 = getelementptr inbounds i8, ptr %10, i64 16
  %12 = load i32, ptr %11, align 8
  %.not1416 = icmp eq i32 %12, 0
  %.phi.trans.insert = getelementptr inbounds i8, ptr %10, i64 8
  %.pre = load ptr, ptr %.phi.trans.insert, align 8
  br i1 %.not1416, label %._crit_edge, label %.lr.ph

.lr.ph:                                           ; preds = %5
  %13 = zext i32 %12 to i64
  %invariant.gep = getelementptr i8, ptr %.pre, i64 -1
  br label %14

14:                                               ; preds = %.lr.ph, %17
  %.017 = phi i64 [ %13, %.lr.ph ], [ %18, %17 ]
  %gep = getelementptr i8, ptr %invariant.gep, i64 %.017
  %15 = load i8, ptr %gep, align 1
  %16 = icmp eq i8 %15, 58
  br i1 %16, label %._crit_edge, label %17

17:                                               ; preds = %14
  %18 = add nsw i64 %.017, -1
  %.not14 = icmp eq i64 %18, 0
  br i1 %.not14, label %._crit_edge, label %14, !llvm.loop !16

._crit_edge:                                      ; preds = %17, %14, %5
  %.0.lcssa = phi i64 [ 0, %5 ], [ %.017, %14 ], [ 0, %17 ]
  %19 = getelementptr inbounds i8, ptr %.pre, i64 %.0.lcssa
  br label %20

20:                                               ; preds = %0, %2, %._crit_edge
  %.013 = phi ptr [ %19, %._crit_edge ], [ @.str.119, %2 ], [ %1, %0 ]
  %21 = load i32, ptr getelementptr inbounds (%struct.BuildTarget, ptr @active_target, i64 0, i32 52), align 8
  switch i32 %21, label %22 [
    i32 23, label %.sink.split
    i32 24, label %.sink.split
    i32 16, label %.sink.split
  ]

22:                                               ; preds = %20
  %23 = load i32, ptr getelementptr inbounds (%struct.PlatformTarget, ptr @platform_target, i64 0, i32 4), align 8
  %24 = tail call zeroext i1 @arch_is_wasm(i32 noundef %23) #20
  br i1 %24, label %.sink.split, label %26

.sink.split:                                      ; preds = %22, %20, %20, %20
  %.str.121.sink = phi ptr [ @.str.120, %20 ], [ @.str.120, %20 ], [ @.str.120, %20 ], [ @.str.121, %22 ]
  %25 = tail call ptr @str_cat(ptr noundef %.013, ptr noundef nonnull %.str.121.sink) #20
  br label %26

26:                                               ; preds = %.sink.split, %22
  %.012 = phi ptr [ %.013, %22 ], [ %25, %.sink.split ]
  ret ptr %.012
}